target datalayout = "e-m:e-p270:32:32-p271:32:32-p272:64:64-i64:64-i128:128-f80:128-n8:16:32:64-S128"
target triple = "x86_64-pc-linux-gnu"

%struct.Mio_LibraryStruct_t_ = type { ptr, i32, ptr, ptr, ptr, ptr, ptr, ptr, ptr, ptr, ptr, ptr, ptr, ptr, ptr, ptr, i32, i32, i32, ptr, ptr, ptr, i32, ptr, ptr, ptr, ptr, [3 x ptr], [3 x ptr] }
%struct.Mio_GateStruct_t_ = type { ptr, double, ptr, ptr, ptr, ptr, ptr, ptr, i32, i32, i32, i32, double, ptr, ptr, %union.anon, i32 }
%union.anon = type { i64 }
%struct.Mio_PinStruct_t_ = type { ptr, i32, double, double, double, double, double, double, double, ptr }

; Function Attrs: nounwind uwtable
define float @Mio_LibraryReadDelayNand2Fall(ptr noundef %0) #0 {
  %2 = alloca ptr, align 8
  store ptr %0, ptr %2, align 8, !tbaa !3
  %3 = load ptr, ptr %2, align 8, !tbaa !3
  %4 = getelementptr inbounds nuw %struct.Mio_LibraryStruct_t_, ptr %3, i32 0, i32 9
  %5 = load ptr, ptr %4, align 8, !tbaa !33
  %6 = icmp ne ptr %5, null
  br i1 %6, label %7, label %15

7:                                                ; preds = %1
  %8 = load ptr, ptr %2, align 8, !tbaa !3
  %9 = getelementptr inbounds nuw %struct.Mio_LibraryStruct_t_, ptr %8, i32 0, i32 9
  %10 = load ptr, ptr %9, align 8, !tbaa !33
  %11 = getelementptr inbounds nuw %struct.Mio_GateStruct_t_, ptr %10, i32 0, i32 3
  %12 = load ptr, ptr %11, align 8, !tbaa !37
  %13 = getelementptr inbounds nuw %struct.Mio_PinStruct_t_, ptr %12, i32 0, i32 6
  %14 = load double, ptr %13, align 8, !tbaa !43
  br label %16

15:                                               ; preds = %1
  br label %16

16:                                               ; preds = %15, %7
  %17 = phi double [ %14, %7 ], [ 0.000000e+00, %15 ]
  %18 = fptrunc double %17 to float
  ret float %18
}