; Function Attrs: mustprogress nofree norecurse nosync nounwind willreturn memory(read, inaccessiblemem: none) uwtable
define float @Mio_LibraryReadDelayNand2Fall(ptr noundef readonly captures(none) %0) local_unnamed_addr #1 {
  %2 = getelementptr inbounds nuw i8, ptr %0, i64 72
  %3 = load ptr, ptr %2, align 8, !tbaa !30
  %.not = icmp eq ptr %3, null
  br i1 %.not, label %10, label %4

4:                                                ; preds = %1
  %5 = getelementptr inbounds nuw i8, ptr %3, i64 24
  %6 = load ptr, ptr %5, align 8, !tbaa !34
  %7 = getelementptr inbounds nuw i8, ptr %6, i64 48
  %8 = load double, ptr %7, align 8, !tbaa !41
  %9 = fptrunc double %8 to float
  br label %10

10:                                               ; preds = %1, %4
  %11 = phi float [ %9, %4 ], [ 0.000000e+00, %1 ]
  ret float %11
}